target datalayout = "e-m:e-p270:32:32-p271:32:32-p272:64:64-i64:64-i128:128-f80:128-n8:16:32:64-S128"
target triple = "x86_64-pc-linux-gnu"

%struct.nstime_t = type { i64, i32 }

@.str.5 = private unnamed_addr constant [24 x i8] c"Time can't be converted\00", align 1
@.str.8024 = private unnamed_addr constant [22 x i8] c"No time specified (0)\00", align 1
@.str.8025 = private unnamed_addr constant [25 x i8] c"Infinity (relative time)\00", align 1
@.str.8026 = private unnamed_addr constant [25 x i8] c"Infinity (absolute time)\00", align 1

; Function Attrs: null_pointer_is_valid sspstrong uwtable
define internal ptr @add_nttime(ptr noundef %0, ptr noundef %1, i32 noundef %2, i32 noundef %3, i64 noundef %4) #1 {
  %6 = alloca ptr, align 8
  %7 = alloca ptr, align 8
  %8 = alloca i32, align 4
  %9 = alloca i32, align 4
  %10 = alloca i64, align 8
  %11 = alloca ptr, align 8
  %12 = alloca %struct.nstime_t, align 8
  store ptr %0, ptr %6, align 8
  store ptr %1, ptr %7, align 8
  store i32 %2, ptr %8, align 4
  store i32 %3, ptr %9, align 4
  store i64 %4, ptr %10, align 8
  call void @llvm.lifetime.start.p0(i64 8, ptr %11) #8
  call void @llvm.lifetime.start.p0(i64 16, ptr %12) #8
  %13 = load i64, ptr %10, align 8
  %14 = icmp eq i64 %13, 0
  br i1 %14, label %15, label %23

15:                                               ; preds = %5
  %16 = getelementptr inbounds nuw %struct.nstime_t, ptr %12, i32 0, i32 0
  store i64 0, ptr %16, align 8
  %17 = getelementptr inbounds nuw %struct.nstime_t, ptr %12, i32 0, i32 1
  store i32 0, ptr %17, align 8
  %18 = load ptr, ptr %7, align 8
  %19 = load i32, ptr %9, align 4
  %20 = load ptr, ptr %6, align 8
  %21 = load i32, ptr %8, align 4
  %22 = call ptr (ptr, i32, ptr, i32, i32, ptr, ptr, ...) @proto_tree_add_time_format_value(ptr noundef %18, i32 noundef %19, ptr noundef %20, i32 noundef %21, i32 noundef 8, ptr noundef %12, ptr noundef @.str.8024)
  store ptr %22, ptr %11, align 8
  br label %63

23:                                               ; preds = %5
  %24 = load i64, ptr %10, align 8
  %25 = icmp eq i64 %24, -9223372036854775808
  br i1 %25, label %26, label %34

26:                                               ; preds = %23
  %27 = getelementptr inbounds nuw %struct.nstime_t, ptr %12, i32 0, i32 0
  store i64 0, ptr %27, align 8
  %28 = getelementptr inbounds nuw %struct.nstime_t, ptr %12, i32 0, i32 1
  store i32 -2147483648, ptr %28, align 8
  %29 = load ptr, ptr %7, align 8
  %30 = load i32, ptr %9, align 4
  %31 = load ptr, ptr %6, align 8
  %32 = load i32, ptr %8, align 4
  %33 = call ptr (ptr, i32, ptr, i32, i32, ptr, ptr, ...) @proto_tree_add_time_format_value(ptr noundef %29, i32 noundef %30, ptr noundef %31, i32 noundef %32, i32 noundef 8, ptr noundef %12, ptr noundef @.str.8025)
  store ptr %33, ptr %11, align 8
  br label %62

34:                                               ; preds = %23
  %35 = load i64, ptr %10, align 8
  %36 = icmp eq i64 %35, 9223372036854775807
  br i1 %36, label %37, label %45

37:                                               ; preds = %34
  %38 = getelementptr inbounds nuw %struct.nstime_t, ptr %12, i32 0, i32 0
  store i64 4294967295, ptr %38, align 8
  %39 = getelementptr inbounds nuw %struct.nstime_t, ptr %12, i32 0, i32 1
  store i32 2147483647, ptr %39, align 8
  %40 = load ptr, ptr %7, align 8
  %41 = load i32, ptr %9, align 4
  %42 = load ptr, ptr %6, align 8
  %43 = load i32, ptr %8, align 4
  %44 = call ptr (ptr, i32, ptr, i32, i32, ptr, ptr, ...) @proto_tree_add_time_format_value(ptr noundef %40, i32 noundef %41, ptr noundef %42, i32 noundef %43, i32 noundef 8, ptr noundef %12, ptr noundef @.str.8026)
  store ptr %44, ptr %11, align 8
  br label %61

45:                                               ; preds = %34
  %46 = load i64, ptr %10, align 8
  %47 = call zeroext i1 @filetime_to_nstime(ptr noundef %12, i64 noundef %46)
  br i1 %47, label %48, label %54

48:                                               ; preds = %45
  %49 = load ptr, ptr %7, align 8
  %50 = load i32, ptr %9, align 4
  %51 = load ptr, ptr %6, align 8
  %52 = load i32, ptr %8, align 4
  %53 = call ptr @proto_tree_add_time(ptr noundef %49, i32 noundef %50, ptr noundef %51, i32 noundef %52, i32 noundef 8, ptr noundef %12)
  store ptr %53, ptr %11, align 8
  br label %60

54:                                               ; preds = %45
  %55 = load ptr, ptr %7, align 8
  %56 = load i32, ptr %9, align 4
  %57 = load ptr, ptr %6, align 8
  %58 = load i32, ptr %8, align 4
  %59 = call ptr (ptr, i32, ptr, i32, i32, ptr, ptr, ...) @proto_tree_add_time_format_value(ptr noundef %55, i32 noundef %56, ptr noundef %57, i32 noundef %58, i32 noundef 8, ptr noundef %12, ptr noundef @.str.5)
  store ptr %59, ptr %11, align 8
  br label %60

60:                                               ; preds = %54, %48
  br label %61

61:                                               ; preds = %60, %37
  br label %62

62:                                               ; preds = %61, %26
  br label %63

63:                                               ; preds = %62, %15
  %64 = load ptr, ptr %11, align 8
  call void @llvm.lifetime.end.p0(i64 16, ptr %12) #8
  call void @llvm.lifetime.end.p0(i64 8, ptr %11) #8
  ret ptr %64
}