; Function Attrs: null_pointer_is_valid sspstrong uwtable
define internal fastcc ptr @add_nttime(ptr noundef %0, ptr noundef nonnull %1, i32 noundef %2, i32 noundef %3, i64 noundef %4) unnamed_addr #1 {
  %6 = alloca %struct.nstime_t, align 8
  call void @llvm.lifetime.start.p0(i64 16, ptr nonnull %6) #7
  switch i64 %4, label %16 [
    i64 0, label %7
    i64 -9223372036854775808, label %10
    i64 9223372036854775807, label %13
  ]

7:                                                ; preds = %5
  store i64 0, ptr %6, align 8
  %8 = getelementptr inbounds nuw i8, ptr %6, i64 8
  store i32 0, ptr %8, align 8
  %9 = call ptr (ptr, i32, ptr, i32, i32, ptr, ptr, ...) @proto_tree_add_time_format_value(ptr noundef nonnull %1, i32 noundef %3, ptr noundef %0, i32 noundef %2, i32 noundef 8, ptr noundef nonnull %6, ptr noundef nonnull @.str.8024)
  br label %22

10:                                               ; preds = %5
  store i64 0, ptr %6, align 8
  %11 = getelementptr inbounds nuw i8, ptr %6, i64 8
  store i32 -2147483648, ptr %11, align 8
  %12 = call ptr (ptr, i32, ptr, i32, i32, ptr, ptr, ...) @proto_tree_add_time_format_value(ptr noundef nonnull %1, i32 noundef %3, ptr noundef %0, i32 noundef %2, i32 noundef 8, ptr noundef nonnull %6, ptr noundef nonnull @.str.8025)
  br label %22

13:                                               ; preds = %5
  store i64 4294967295, ptr %6, align 8
  %14 = getelementptr inbounds nuw i8, ptr %6, i64 8
  store i32 2147483647, ptr %14, align 8
  %15 = call ptr (ptr, i32, ptr, i32, i32, ptr, ptr, ...) @proto_tree_add_time_format_value(ptr noundef nonnull %1, i32 noundef %3, ptr noundef %0, i32 noundef %2, i32 noundef 8, ptr noundef nonnull %6, ptr noundef nonnull @.str.8026)
  br label %22

16:                                               ; preds = %5
  %17 = call zeroext i1 @filetime_to_nstime(ptr noundef nonnull %6, i64 noundef %4)
  br i1 %17, label %18, label %20

18:                                               ; preds = %16
  %19 = call ptr @proto_tree_add_time(ptr noundef nonnull %1, i32 noundef %3, ptr noundef %0, i32 noundef %2, i32 noundef 8, ptr noundef nonnull %6)
  br label %22

20:                                               ; preds = %16
  %21 = call ptr (ptr, i32, ptr, i32, i32, ptr, ptr, ...) @proto_tree_add_time_format_value(ptr noundef nonnull %1, i32 noundef %3, ptr noundef %0, i32 noundef %2, i32 noundef 8, ptr noundef nonnull %6, ptr noundef nonnull @.str.5)
  br label %22

22:                                               ; preds = %10, %18, %20, %13, %7
  %.0 = phi ptr [ %9, %7 ], [ %12, %10 ], [ %15, %13 ], [ %19, %18 ], [ %21, %20 ]
  call void @llvm.lifetime.end.p0(i64 16, ptr nonnull %6) #7
  ret ptr %.0
}